target datalayout = "e-m:e-p270:32:32-p271:32:32-p272:64:64-i64:64-i128:128-f80:128-n8:16:32:64-S128"
target triple = "x86_64-pc-linux-gnu"

%struct.ident_t = type { i32, i32, i32, i32, ptr }
%"class.std::__mutex_base" = type { %union.pthread_mutex_t }
%union.pthread_mutex_t = type { %struct.__pthread_mutex_s }
%struct.__pthread_mutex_s = type { i32, i32, i32, i32, i32, i16, i16, %struct.__pthread_internal_list }
%struct.__pthread_internal_list = type { ptr, ptr }
%"struct.faiss::Index" = type <{ ptr, i32, [4 x i8], i64, i8, i8, [2 x i8], i32, float, [4 x i8] }>
%"class.std::lock_guard" = type { ptr }

@1 = private unnamed_addr constant %struct.ident_t { i32 0, i32 514, i32 0, i32 22, ptr @0 }, align 8
@_ZTISt9exception = external constant ptr

; Function Attrs: inlinehint mustprogress nounwind uwtable
define internal noundef i32 @_ZL18__gthread_active_pv() #5 {
  ret i32 1
}

; Function Attrs: inlinehint mustprogress nounwind uwtable
define internal noundef i32 @_ZL22__gthread_mutex_unlockP15pthread_mutex_t(ptr noundef %0) #5 {
  %2 = alloca i32, align 4
  %3 = alloca ptr, align 8
  store ptr %0, ptr %3, align 8, !tbaa !76
  %4 = call noundef i32 @_ZL18__gthread_active_pv()
  %5 = icmp ne i32 %4, 0
  br i1 %5, label %6, label %9

6:                                                ; preds = %1
  %7 = load ptr, ptr %3, align 8, !tbaa !76
  %8 = call i32 @pthread_mutex_unlock(ptr noundef %7) #16
  store i32 %8, ptr %2, align 4
  br label %10

9:                                                ; preds = %1
  store i32 0, ptr %2, align 4
  br label %10

10:                                               ; preds = %9, %6
  %11 = load i32, ptr %2, align 4
  ret i32 %11
}

; Function Attrs: inlinehint mustprogress uwtable
define internal noundef i32 @_ZL20__gthread_mutex_lockP15pthread_mutex_t(ptr noundef %0) #8 {
  %2 = alloca i32, align 4
  %3 = alloca ptr, align 8
  store ptr %0, ptr %3, align 8, !tbaa !76
  %4 = call noundef i32 @_ZL18__gthread_active_pv()
  %5 = icmp ne i32 %4, 0
  br i1 %5, label %6, label %9

6:                                                ; preds = %1
  %7 = load ptr, ptr %3, align 8, !tbaa !76
  %8 = call i32 @pthread_mutex_lock(ptr noundef %7) #16
  store i32 %8, ptr %2, align 4
  br label %10

9:                                                ; preds = %1
  store i32 0, ptr %2, align 4
  br label %10

10:                                               ; preds = %9, %6
  %11 = load i32, ptr %2, align 4
  ret i32 %11
}

; Function Attrs: mustprogress uwtable
define linkonce_odr void @_ZNSt5mutex6unlockEv(ptr noundef nonnull align 8 dereferenceable(40) %0) #1 comdat align 2 {
  %2 = alloca ptr, align 8
  store ptr %0, ptr %2, align 8, !tbaa !81
  %3 = load ptr, ptr %2, align 8
  %4 = getelementptr inbounds nuw %"class.std::__mutex_base", ptr %3, i32 0, i32 0
  %5 = call noundef i32 @_ZL22__gthread_mutex_unlockP15pthread_mutex_t(ptr noundef %4)
  ret void
}

; Function Attrs: mustprogress uwtable
define linkonce_odr void @_ZNSt5mutex4lockEv(ptr noundef nonnull align 8 dereferenceable(40) %0) #1 comdat align 2 {
  %2 = alloca ptr, align 8
  %3 = alloca i32, align 4
  store ptr %0, ptr %2, align 8, !tbaa !81
  %4 = load ptr, ptr %2, align 8
  call void @llvm.lifetime.start.p0(i64 4, ptr %3) #16
  %5 = getelementptr inbounds nuw %"class.std::__mutex_base", ptr %4, i32 0, i32 0
  %6 = call noundef i32 @_ZL20__gthread_mutex_lockP15pthread_mutex_t(ptr noundef %5)
  store i32 %6, ptr %3, align 4, !tbaa !25
  %7 = load i32, ptr %3, align 4, !tbaa !25
  %8 = icmp ne i32 %7, 0
  br i1 %8, label %9, label %11

9:                                                ; preds = %1
  %10 = load i32, ptr %3, align 4, !tbaa !25
  call void @_ZSt20__throw_system_errori(i32 noundef %10) #21
  unreachable

11:                                               ; preds = %1
  call void @llvm.lifetime.end.p0(i64 4, ptr %3) #16
  ret void
}

; Function Attrs: mustprogress nounwind uwtable
define linkonce_odr void @_ZNSt10lock_guardISt5mutexED2Ev(ptr noundef nonnull align 8 dereferenceable(8) %0) unnamed_addr #0 comdat align 2 personality ptr @__gxx_personality_v0 {
  %2 = alloca ptr, align 8
  store ptr %0, ptr %2, align 8, !tbaa !89
  %3 = load ptr, ptr %2, align 8
  %4 = getelementptr inbounds nuw %"class.std::lock_guard", ptr %3, i32 0, i32 0
  %5 = load ptr, ptr %4, align 8, !tbaa !91
  invoke void @_ZNSt5mutex6unlockEv(ptr noundef nonnull align 8 dereferenceable(40) %5)
          to label %6 unwind label %7

6:                                                ; preds = %1
  ret void

7:                                                ; preds = %1
  %8 = landingpad { ptr, i32 }
          catch ptr null
  %9 = extractvalue { ptr, i32 } %8, 0
  call void @__clang_call_terminate(ptr %9) #20
  unreachable
}

; Function Attrs: mustprogress uwtable
define linkonce_odr void @_ZNSt10lock_guardISt5mutexEC2ERS0_(ptr noundef nonnull align 8 dereferenceable(8) %0, ptr noundef nonnull align 8 dereferenceable(40) %1) unnamed_addr #1 comdat align 2 {
  %3 = alloca ptr, align 8
  %4 = alloca ptr, align 8
  store ptr %0, ptr %3, align 8, !tbaa !89
  store ptr %1, ptr %4, align 8, !tbaa !81
  %5 = load ptr, ptr %3, align 8
  %6 = getelementptr inbounds nuw %"class.std::lock_guard", ptr %5, i32 0, i32 0
  %7 = load ptr, ptr %4, align 8, !tbaa !81
  store ptr %7, ptr %6, align 8, !tbaa !81
  %8 = getelementptr inbounds nuw %"class.std::lock_guard", ptr %5, i32 0, i32 0
  %9 = load ptr, ptr %8, align 8, !tbaa !91
  call void @_ZNSt5mutex4lockEv(ptr noundef nonnull align 8 dereferenceable(40) %9)
  ret void
}

; Function Attrs: noinline norecurse nounwind uwtable
define internal void @_ZNK5faiss5Index17reconstruct_batchElPKlPf.omp_outlined(ptr noalias noundef %0, ptr noalias noundef %1, ptr noundef nonnull align 8 dereferenceable(8) %2, ptr noundef %3, ptr noundef nonnull align 8 dereferenceable(8) %4, ptr noundef nonnull align 8 dereferenceable(8) %5, ptr noundef nonnull align 8 dereferenceable(40) %6, ptr noundef nonnull align 8 dereferenceable(32) %7) #15 personality ptr @__gxx_personality_v0 {
  %9 = alloca ptr, align 8
  %10 = alloca ptr, align 8
  %11 = alloca ptr, align 8
  %12 = alloca ptr, align 8
  %13 = alloca ptr, align 8
  %14 = alloca ptr, align 8
  %15 = alloca ptr, align 8
  %16 = alloca ptr, align 8
  %17 = alloca i64, align 8
  %18 = alloca i64, align 8
  %19 = alloca i64, align 8
  %20 = alloca i64, align 8
  %21 = alloca i64, align 8
  %22 = alloca i64, align 8
  %23 = alloca i64, align 8
  %24 = alloca i32, align 4
  %25 = alloca i64, align 8
  %26 = alloca ptr, align 8
  %27 = alloca i32, align 4
  %28 = alloca ptr, align 8
  %29 = alloca %"class.std::lock_guard", align 8
  store ptr %0, ptr %9, align 8, !tbaa !83
  store ptr %1, ptr %10, align 8, !tbaa !83
  store ptr %2, ptr %11, align 8, !tbaa !13
  store ptr %3, ptr %12, align 8, !tbaa !4
  store ptr %4, ptr %13, align 8, !tbaa !85
  store ptr %5, ptr %14, align 8, !tbaa !78
  store ptr %6, ptr %15, align 8, !tbaa !81
  store ptr %7, ptr %16, align 8, !tbaa !40
  %30 = load ptr, ptr %11, align 8, !tbaa !13
  %31 = load ptr, ptr %12, align 8, !tbaa !4
  %32 = load ptr, ptr %13, align 8, !tbaa !85
  %33 = load ptr, ptr %14, align 8, !tbaa !78
  %34 = load ptr, ptr %15, align 8, !tbaa !81
  %35 = load ptr, ptr %16, align 8, !tbaa !40
  call void @llvm.lifetime.start.p0(i64 8, ptr %17) #16
  call void @llvm.lifetime.start.p0(i64 8, ptr %18) #16
  %36 = load i64, ptr %30, align 8, !tbaa !9
  store i64 %36, ptr %18, align 8, !tbaa !9
  call void @llvm.lifetime.start.p0(i64 8, ptr %19) #16
  %37 = load i64, ptr %18, align 8, !tbaa !9
  %38 = sub nsw i64 %37, 0
  %39 = sdiv i64 %38, 1
  %40 = sub nsw i64 %39, 1
  store i64 %40, ptr %19, align 8, !tbaa !9
  call void @llvm.lifetime.start.p0(i64 8, ptr %20) #16
  store i64 0, ptr %20, align 8, !tbaa !9
  call void @llvm.lifetime.end.p0(i64 8, ptr %20) #16
  %41 = load i64, ptr %18, align 8, !tbaa !9
  %42 = icmp slt i64 0, %41
  br i1 %42, label %43, label %110

43:                                               ; preds = %8
  call void @llvm.lifetime.start.p0(i64 8, ptr %21) #16
  store i64 0, ptr %21, align 8, !tbaa !9
  call void @llvm.lifetime.start.p0(i64 8, ptr %22) #16
  %44 = load i64, ptr %19, align 8, !tbaa !9
  store i64 %44, ptr %22, align 8, !tbaa !9
  call void @llvm.lifetime.start.p0(i64 8, ptr %23) #16
  store i64 1, ptr %23, align 8, !tbaa !9
  call void @llvm.lifetime.start.p0(i64 4, ptr %24) #16
  store i32 0, ptr %24, align 4, !tbaa !25
  call void @llvm.lifetime.start.p0(i64 8, ptr %25) #16
  %45 = load ptr, ptr %9, align 8
  %46 = load i32, ptr %45, align 4, !tbaa !25
  call void @__kmpc_for_static_init_8(ptr @1, i32 %46, i32 34, ptr %24, ptr %21, ptr %22, ptr %23, i64 1, i64 1)
  %47 = load i64, ptr %22, align 8, !tbaa !9
  %48 = load i64, ptr %19, align 8, !tbaa !9
  %49 = icmp sgt i64 %47, %48
  br i1 %49, label %50, label %52

50:                                               ; preds = %43
  %51 = load i64, ptr %19, align 8, !tbaa !9
  br label %54

52:                                               ; preds = %43
  %53 = load i64, ptr %22, align 8, !tbaa !9
  br label %54

54:                                               ; preds = %52, %50
  %55 = phi i64 [ %51, %50 ], [ %53, %52 ]
  store i64 %55, ptr %22, align 8, !tbaa !9
  %56 = load i64, ptr %21, align 8, !tbaa !9
  store i64 %56, ptr %17, align 8, !tbaa !9
  br label %57

57:                                               ; preds = %103, %54
  %58 = load i64, ptr %17, align 8, !tbaa !9
  %59 = load i64, ptr %22, align 8, !tbaa !9
  %60 = icmp sle i64 %58, %59
  br i1 %60, label %62, label %61

61:                                               ; preds = %57
  br label %106

62:                                               ; preds = %57
  %63 = load i64, ptr %17, align 8, !tbaa !9
  %64 = mul nsw i64 %63, 1
  %65 = add nsw i64 0, %64
  store i64 %65, ptr %25, align 8, !tbaa !9
  %66 = load ptr, ptr %32, align 8, !tbaa !13
  %67 = load i64, ptr %25, align 8, !tbaa !9
  %68 = getelementptr inbounds i64, ptr %66, i64 %67
  %69 = load i64, ptr %68, align 8, !tbaa !9
  %70 = load ptr, ptr %33, align 8, !tbaa !11
  %71 = load i64, ptr %25, align 8, !tbaa !9
  %72 = getelementptr inbounds nuw %"struct.faiss::Index", ptr %31, i32 0, i32 1
  %73 = load i32, ptr %72, align 8, !tbaa !27
  %74 = sext i32 %73 to i64
  %75 = mul nsw i64 %71, %74
  %76 = getelementptr inbounds float, ptr %70, i64 %75
  %77 = load ptr, ptr %31, align 8, !tbaa !21
  %78 = getelementptr inbounds ptr, ptr %77, i64 10
  %79 = load ptr, ptr %78, align 8
  invoke void %79(ptr noundef nonnull align 8 dereferenceable(36) %31, i64 noundef %69, ptr noundef %76)
          to label %80 unwind label %81

80:                                               ; preds = %62
  br label %101

81:                                               ; preds = %62
  %82 = landingpad { ptr, i32 }
          catch ptr @_ZTISt9exception
          catch ptr null
  %83 = extractvalue { ptr, i32 } %82, 0
  store ptr %83, ptr %26, align 8
  %84 = extractvalue { ptr, i32 } %82, 1
  store i32 %84, ptr %27, align 4
  br label %85

85:                                               ; preds = %81
  %86 = load i32, ptr %27, align 4
  %87 = call i32 @llvm.eh.typeid.for.p0(ptr @_ZTISt9exception) #16
  %88 = icmp eq i32 %86, %87
  br i1 %88, label %89, label %114

89:                                               ; preds = %85
  call void @llvm.lifetime.start.p0(i64 8, ptr %28) #16
  %90 = load ptr, ptr %26, align 8
  %91 = call ptr @__cxa_begin_catch(ptr %90) #16
  store ptr %91, ptr %28, align 8
  call void @llvm.lifetime.start.p0(i64 8, ptr %29) #16
  invoke void @_ZNSt10lock_guardISt5mutexEC2ERS0_(ptr noundef nonnull align 8 dereferenceable(8) %29, ptr noundef nonnull align 8 dereferenceable(40) %34)
          to label %92 unwind label %111

92:                                               ; preds = %89
  %93 = load ptr, ptr %28, align 8, !tbaa !87
  %94 = load ptr, ptr %93, align 8, !tbaa !21
  %95 = getelementptr inbounds ptr, ptr %94, i64 2
  %96 = load ptr, ptr %95, align 8
  %97 = call noundef ptr %96(ptr noundef nonnull align 8 dereferenceable(8) %93) #16
  %98 = invoke noundef nonnull align 8 dereferenceable(32) ptr @_ZNSt7__cxx1112basic_stringIcSt11char_traitsIcESaIcEEaSEPKc(ptr noundef nonnull align 8 dereferenceable(32) %35, ptr noundef %97)
          to label %99 unwind label %111

99:                                               ; preds = %92
  call void @_ZNSt10lock_guardISt5mutexED2Ev(ptr noundef nonnull align 8 dereferenceable(8) %29) #16
  call void @llvm.lifetime.end.p0(i64 8, ptr %29) #16
  invoke void @__cxa_end_catch()
          to label %100 unwind label %111

100:                                              ; preds = %99
  call void @llvm.lifetime.end.p0(i64 8, ptr %28) #16
  br label %101

101:                                              ; preds = %100, %80
  br label %102

102:                                              ; preds = %101
  br label %103

103:                                              ; preds = %102
  %104 = load i64, ptr %17, align 8, !tbaa !9
  %105 = add nsw i64 %104, 1
  store i64 %105, ptr %17, align 8, !tbaa !9
  br label %57

106:                                              ; preds = %61
  br label %107

107:                                              ; preds = %106
  %108 = load ptr, ptr %9, align 8
  %109 = load i32, ptr %108, align 4, !tbaa !25
  call void @__kmpc_for_static_fini(ptr @1, i32 %109)
  call void @llvm.lifetime.end.p0(i64 8, ptr %25) #16
  call void @llvm.lifetime.end.p0(i64 4, ptr %24) #16
  call void @llvm.lifetime.end.p0(i64 8, ptr %23) #16
  call void @llvm.lifetime.end.p0(i64 8, ptr %22) #16
  call void @llvm.lifetime.end.p0(i64 8, ptr %21) #16
  br label %110

110:                                              ; preds = %107, %8
  call void @llvm.lifetime.end.p0(i64 8, ptr %19) #16
  call void @llvm.lifetime.end.p0(i64 8, ptr %18) #16
  call void @llvm.lifetime.end.p0(i64 8, ptr %17) #16
  ret void

111:                                              ; preds = %99, %92, %89
  %112 = landingpad { ptr, i32 }
          catch ptr null
  %113 = extractvalue { ptr, i32 } %112, 0
  call void @__clang_call_terminate(ptr %113) #20
  unreachable

114:                                              ; preds = %85
  %115 = load ptr, ptr %26, align 8
  call void @__clang_call_terminate(ptr %115) #20
  unreachable
}