; Function Attrs: noinline norecurse nounwind uwtable
define internal void @_ZNK5faiss5Index17reconstruct_batchElPKlPf.omp_outlined(ptr noalias noundef readonly captures(none) %0, ptr noalias readnone captures(none) %1, ptr noundef nonnull readonly align 8 captures(none) dereferenceable(8) %2, ptr noundef %3, ptr noundef nonnull readonly align 8 captures(none) dereferenceable(8) %4, ptr noundef nonnull readonly align 8 captures(none) dereferenceable(8) %5, ptr noundef nonnull align 8 dereferenceable(40) %6, ptr noundef nonnull align 8 dereferenceable(32) %7) #18 personality ptr @__gxx_personality_v0 {
  %9 = alloca i64, align 8
  %10 = alloca i64, align 8
  %11 = alloca i64, align 8
  %12 = alloca i32, align 4
  %13 = load i64, ptr %2, align 8, !tbaa !10
  %14 = icmp sgt i64 %13, 0
  br i1 %14, label %15, label %54

15:                                               ; preds = %8
  %16 = add nsw i64 %13, -1
  call void @llvm.lifetime.start.p0(i64 8, ptr nonnull %9) #19
  store i64 0, ptr %9, align 8, !tbaa !10
  call void @llvm.lifetime.start.p0(i64 8, ptr nonnull %10) #19
  store i64 %16, ptr %10, align 8, !tbaa !10
  call void @llvm.lifetime.start.p0(i64 8, ptr nonnull %11) #19
  store i64 1, ptr %11, align 8, !tbaa !10
  call void @llvm.lifetime.start.p0(i64 4, ptr nonnull %12) #19
  store i32 0, ptr %12, align 4, !tbaa !24
  %17 = load i32, ptr %0, align 4, !tbaa !24
  call void @__kmpc_for_static_init_8(ptr nonnull @1, i32 %17, i32 34, ptr nonnull %12, ptr nonnull %9, ptr nonnull %10, ptr nonnull %11, i64 1, i64 1)
  %18 = load i64, ptr %10, align 8, !tbaa !10
  %19 = call i64 @llvm.smin.i64(i64 %18, i64 %16)
  store i64 %19, ptr %10, align 8, !tbaa !10
  %20 = load i64, ptr %9, align 8, !tbaa !10
  %.not25 = icmp sgt i64 %20, %19
  br i1 %.not25, label %._crit_edge, label %.lr.ph

.lr.ph:                                           ; preds = %15
  %21 = getelementptr inbounds nuw i8, ptr %3, i64 8
  br label %22

22:                                               ; preds = %.lr.ph, %51
  %.026 = phi i64 [ %20, %.lr.ph ], [ %52, %51 ]
  %23 = load ptr, ptr %4, align 8, !tbaa !20
  %24 = getelementptr inbounds i64, ptr %23, i64 %.026
  %25 = load i64, ptr %24, align 8, !tbaa !10
  %26 = load ptr, ptr %5, align 8, !tbaa !22
  %27 = load i32, ptr %21, align 8, !tbaa !26
  %28 = sext i32 %27 to i64
  %29 = mul nsw i64 %.026, %28
  %30 = getelementptr inbounds float, ptr %26, i64 %29
  %31 = load ptr, ptr %3, align 8, !tbaa !18
  %32 = getelementptr inbounds nuw i8, ptr %31, i64 80
  %33 = load ptr, ptr %32, align 8
  invoke void %33(ptr noundef nonnull align 8 dereferenceable(36) %3, i64 noundef %25, ptr noundef %30)
          to label %51 unwind label %34

34:                                               ; preds = %22
  %35 = landingpad { ptr, i32 }
          catch ptr @_ZTISt9exception
          catch ptr null
  %36 = extractvalue { ptr, i32 } %35, 0
  %37 = extractvalue { ptr, i32 } %35, 1
  %38 = call i32 @llvm.eh.typeid.for.p0(ptr nonnull @_ZTISt9exception) #19
  %39 = icmp eq i32 %37, %38
  br i1 %39, label %40, label %57

40:                                               ; preds = %34
  %41 = call ptr @__cxa_begin_catch(ptr %36) #19
  %42 = call noundef i32 @pthread_mutex_lock(ptr noundef nonnull align 8 dereferenceable(40) %6) #19
  %.not.i.i = icmp eq i32 %42, 0
  br i1 %.not.i.i, label %_ZNSt10lock_guardISt5mutexEC2ERS0_.exit, label %43

43:                                               ; preds = %40
  invoke void @_ZSt20__throw_system_errori(i32 noundef %42) #28
          to label %.noexc unwind label %.loopexit.split-lp

.noexc:                                           ; preds = %43
  unreachable

_ZNSt10lock_guardISt5mutexEC2ERS0_.exit:          ; preds = %40
  %44 = load ptr, ptr %41, align 8, !tbaa !18
  %45 = getelementptr inbounds nuw i8, ptr %44, i64 16
  %46 = load ptr, ptr %45, align 8
  %47 = call noundef ptr %46(ptr noundef nonnull align 8 dereferenceable(8) %41) #19
  %48 = invoke noundef nonnull align 8 dereferenceable(32) ptr @_ZNSt7__cxx1112basic_stringIcSt11char_traitsIcESaIcEEaSEPKc(ptr noundef nonnull align 8 dereferenceable(32) %7, ptr noundef %47)
          to label %49 unwind label %.loopexit

49:                                               ; preds = %_ZNSt10lock_guardISt5mutexEC2ERS0_.exit
  %50 = call noundef i32 @pthread_mutex_unlock(ptr noundef nonnull align 8 dereferenceable(40) %6) #19
  invoke void @__cxa_end_catch()
          to label %51 unwind label %.loopexit

51:                                               ; preds = %49, %22
  %52 = add nsw i64 %.026, 1
  %53 = load i64, ptr %10, align 8, !tbaa !10
  %.not.not = icmp slt i64 %.026, %53
  br i1 %.not.not, label %22, label %._crit_edge

._crit_edge:                                      ; preds = %51, %15
  call void @__kmpc_for_static_fini(ptr nonnull @1, i32 %17)
  call void @llvm.lifetime.end.p0(i64 4, ptr nonnull %12) #19
  call void @llvm.lifetime.end.p0(i64 8, ptr nonnull %11) #19
  call void @llvm.lifetime.end.p0(i64 8, ptr nonnull %10) #19
  call void @llvm.lifetime.end.p0(i64 8, ptr nonnull %9) #19
  br label %54

54:                                               ; preds = %._crit_edge, %8
  ret void

.loopexit:                                        ; preds = %_ZNSt10lock_guardISt5mutexEC2ERS0_.exit, %49
  %lpad.loopexit = landingpad { ptr, i32 }
          catch ptr null
  br label %55

.loopexit.split-lp:                               ; preds = %43
  %lpad.loopexit.split-lp = landingpad { ptr, i32 }
          catch ptr null
  br label %55

55:                                               ; preds = %.loopexit.split-lp, %.loopexit
  %lpad.phi = phi { ptr, i32 } [ %lpad.loopexit, %.loopexit ], [ %lpad.loopexit.split-lp, %.loopexit.split-lp ]
  %56 = extractvalue { ptr, i32 } %lpad.phi, 0
  call void @__clang_call_terminate(ptr %56) #27
  unreachable

57:                                               ; preds = %34
  call void @__clang_call_terminate(ptr %36) #27
  unreachable
}